target datalayout = "e-m:e-p270:32:32-p271:32:32-p272:64:64-i64:64-i128:128-f80:128-n8:16:32:64-S128"
target triple = "x86_64-pc-linux-gnu"

%"class.rocksdb::cassandra::ColumnBase" = type <{ ptr, i8, i8, [6 x i8] }>
%"class.rocksdb::cassandra::ColumnBase.base" = type <{ ptr, i8, i8 }>
%"class.rocksdb::cassandra::Tombstone" = type { %"class.rocksdb::cassandra::ColumnBase.base", i32, i64 }
%"class.std::__cxx11::basic_string" = type { %"struct.std::__cxx11::basic_string<char>::_Alloc_hider", i64, %union.anon }
%"struct.std::__cxx11::basic_string<char>::_Alloc_hider" = type { ptr }
%union.anon = type { i64, [8 x i8] }

; Function Attrs: mustprogress nounwind uwtable
define available_externally noundef i64 @_ZNKSt7__cxx1112basic_stringIcSt11char_traitsIcESaIcEE4sizeEv(ptr noundef nonnull align 8 dereferenceable(32) %0) #0 align 2 {
  %2 = alloca ptr, align 8
  store ptr %0, ptr %2, align 8, !tbaa !15
  %3 = load ptr, ptr %2, align 8
  %4 = getelementptr inbounds nuw %"class.std::__cxx11::basic_string", ptr %3, i32 0, i32 1
  %5 = load i64, ptr %4, align 8, !tbaa !138
  ret i64 %5
}

; Function Attrs: mustprogress uwtable
define available_externally noundef nonnull align 8 dereferenceable(32) ptr @_ZNSt7__cxx1112basic_stringIcSt11char_traitsIcESaIcEE6appendEmc(ptr noundef nonnull align 8 dereferenceable(32) %0, i64 noundef %1, i8 noundef signext %2) #1 align 2 {
  %4 = alloca ptr, align 8
  %5 = alloca i64, align 8
  %6 = alloca i8, align 1
  store ptr %0, ptr %4, align 8, !tbaa !15
  store i64 %1, ptr %5, align 8, !tbaa !19
  store i8 %2, ptr %6, align 1, !tbaa !9
  %7 = load ptr, ptr %4, align 8
  %8 = call noundef i64 @_ZNKSt7__cxx1112basic_stringIcSt11char_traitsIcESaIcEE4sizeEv(ptr noundef nonnull align 8 dereferenceable(32) %7) #20
  %9 = load i64, ptr %5, align 8, !tbaa !19
  %10 = load i8, ptr %6, align 1, !tbaa !9
  %11 = call noundef nonnull align 8 dereferenceable(32) ptr @_ZNSt7__cxx1112basic_stringIcSt11char_traitsIcESaIcEE14_M_replace_auxEmmmc(ptr noundef nonnull align 8 dereferenceable(32) %7, i64 noundef %8, i64 noundef 0, i64 noundef %9, i8 noundef signext %10)
  ret ptr %11
}

; Function Attrs: inlinehint mustprogress uwtable
define linkonce_odr void @_ZN7rocksdb9cassandra9SerializeIaEEvT_PNSt7__cxx1112basic_stringIcSt11char_traitsIcESaIcEEE(i8 noundef signext %0, ptr noundef %1) #2 comdat {
  %3 = alloca i8, align 1
  %4 = alloca ptr, align 8
  store i8 %0, ptr %3, align 1, !tbaa !9
  store ptr %1, ptr %4, align 8, !tbaa !15
  %5 = load ptr, ptr %4, align 8, !tbaa !15
  %6 = load i8, ptr %3, align 1, !tbaa !9
  %7 = sext i8 %6 to i64
  %8 = and i64 %7, 255
  %9 = trunc i64 %8 to i8
  %10 = call noundef nonnull align 8 dereferenceable(32) ptr @_ZNSt7__cxx1112basic_stringIcSt11char_traitsIcESaIcEE6appendEmc(ptr noundef nonnull align 8 dereferenceable(32) %5, i64 noundef 1, i8 noundef signext %9)
  ret void
}

; Function Attrs: inlinehint mustprogress uwtable
define linkonce_odr void @_ZN7rocksdb9cassandra9SerializeIlEEvT_PNSt7__cxx1112basic_stringIcSt11char_traitsIcESaIcEEE(i64 noundef %0, ptr noundef %1) #2 comdat {
  %3 = alloca i64, align 8
  %4 = alloca ptr, align 8
  %5 = alloca i64, align 8
  store i64 %0, ptr %3, align 8, !tbaa !19
  store ptr %1, ptr %4, align 8, !tbaa !15
  call void @llvm.lifetime.start.p0(i64 8, ptr %5) #20
  store i64 0, ptr %5, align 8, !tbaa !19
  br label %6

6:                                                ; preds = %20, %2
  %7 = load i64, ptr %5, align 8, !tbaa !19
  %8 = icmp ult i64 %7, 8
  br i1 %8, label %10, label %9

9:                                                ; preds = %6
  call void @llvm.lifetime.end.p0(i64 8, ptr %5) #20
  br label %23

10:                                               ; preds = %6
  %11 = load ptr, ptr %4, align 8, !tbaa !15
  %12 = load i64, ptr %3, align 8, !tbaa !19
  %13 = load i64, ptr %5, align 8, !tbaa !19
  %14 = sub i64 7, %13
  %15 = mul i64 %14, 8
  %16 = ashr i64 %12, %15
  %17 = and i64 %16, 255
  %18 = trunc i64 %17 to i8
  %19 = call noundef nonnull align 8 dereferenceable(32) ptr @_ZNSt7__cxx1112basic_stringIcSt11char_traitsIcESaIcEE6appendEmc(ptr noundef nonnull align 8 dereferenceable(32) %11, i64 noundef 1, i8 noundef signext %18)
  br label %20

20:                                               ; preds = %10
  %21 = load i64, ptr %5, align 8, !tbaa !19
  %22 = add i64 %21, 1
  store i64 %22, ptr %5, align 8, !tbaa !19
  br label %6, !llvm.loop !43

23:                                               ; preds = %9
  ret void
}

; Function Attrs: inlinehint mustprogress uwtable
define linkonce_odr void @_ZN7rocksdb9cassandra9SerializeIiEEvT_PNSt7__cxx1112basic_stringIcSt11char_traitsIcESaIcEEE(i32 noundef %0, ptr noundef %1) #2 comdat {
  %3 = alloca i32, align 4
  %4 = alloca ptr, align 8
  %5 = alloca i64, align 8
  store i32 %0, ptr %3, align 4, !tbaa !21
  store ptr %1, ptr %4, align 8, !tbaa !15
  call void @llvm.lifetime.start.p0(i64 8, ptr %5) #20
  store i64 0, ptr %5, align 8, !tbaa !19
  br label %6

6:                                                ; preds = %22, %2
  %7 = load i64, ptr %5, align 8, !tbaa !19
  %8 = icmp ult i64 %7, 4
  br i1 %8, label %10, label %9

9:                                                ; preds = %6
  call void @llvm.lifetime.end.p0(i64 8, ptr %5) #20
  br label %25

10:                                               ; preds = %6
  %11 = load ptr, ptr %4, align 8, !tbaa !15
  %12 = load i32, ptr %3, align 4, !tbaa !21
  %13 = load i64, ptr %5, align 8, !tbaa !19
  %14 = sub i64 3, %13
  %15 = mul i64 %14, 8
  %16 = trunc i64 %15 to i32
  %17 = ashr i32 %12, %16
  %18 = sext i32 %17 to i64
  %19 = and i64 %18, 255
  %20 = trunc i64 %19 to i8
  %21 = call noundef nonnull align 8 dereferenceable(32) ptr @_ZNSt7__cxx1112basic_stringIcSt11char_traitsIcESaIcEE6appendEmc(ptr noundef nonnull align 8 dereferenceable(32) %11, i64 noundef 1, i8 noundef signext %20)
  br label %22

22:                                               ; preds = %10
  %23 = load i64, ptr %5, align 8, !tbaa !19
  %24 = add i64 %23, 1
  store i64 %24, ptr %5, align 8, !tbaa !19
  br label %6, !llvm.loop !45

25:                                               ; preds = %9
  ret void
}

; Function Attrs: mustprogress uwtable
define void @_ZNK7rocksdb9cassandra10ColumnBase9SerializeEPNSt7__cxx1112basic_stringIcSt11char_traitsIcESaIcEEE(ptr noundef nonnull align 8 dereferenceable(10) %0, ptr noundef %1) unnamed_addr #1 align 2 {
  %3 = alloca ptr, align 8
  %4 = alloca ptr, align 8
  store ptr %0, ptr %3, align 8, !tbaa !4
  store ptr %1, ptr %4, align 8, !tbaa !15
  %5 = load ptr, ptr %3, align 8
  %6 = getelementptr inbounds nuw %"class.rocksdb::cassandra::ColumnBase", ptr %5, i32 0, i32 1
  %7 = load i8, ptr %6, align 8, !tbaa !12
  %8 = load ptr, ptr %4, align 8, !tbaa !15
  call void @_ZN7rocksdb9cassandra9SerializeIaEEvT_PNSt7__cxx1112basic_stringIcSt11char_traitsIcESaIcEEE(i8 noundef signext %7, ptr noundef %8)
  %9 = getelementptr inbounds nuw %"class.rocksdb::cassandra::ColumnBase", ptr %5, i32 0, i32 2
  %10 = load i8, ptr %9, align 1, !tbaa !14
  %11 = load ptr, ptr %4, align 8, !tbaa !15
  call void @_ZN7rocksdb9cassandra9SerializeIaEEvT_PNSt7__cxx1112basic_stringIcSt11char_traitsIcESaIcEEE(i8 noundef signext %10, ptr noundef %11)
  ret void
}

; Function Attrs: mustprogress uwtable
define void @_ZNK7rocksdb9cassandra9Tombstone9SerializeEPNSt7__cxx1112basic_stringIcSt11char_traitsIcESaIcEEE(ptr noundef nonnull align 8 dereferenceable(24) %0, ptr noundef %1) unnamed_addr #1 align 2 {
  %3 = alloca ptr, align 8
  %4 = alloca ptr, align 8
  store ptr %0, ptr %3, align 8, !tbaa !76
  store ptr %1, ptr %4, align 8, !tbaa !15
  %5 = load ptr, ptr %3, align 8
  %6 = load ptr, ptr %4, align 8, !tbaa !15
  call void @_ZNK7rocksdb9cassandra10ColumnBase9SerializeEPNSt7__cxx1112basic_stringIcSt11char_traitsIcESaIcEEE(ptr noundef nonnull align 8 dereferenceable(10) %5, ptr noundef %6)
  %7 = getelementptr inbounds nuw %"class.rocksdb::cassandra::Tombstone", ptr %5, i32 0, i32 1
  %8 = load i32, ptr %7, align 4, !tbaa !78
  %9 = load ptr, ptr %4, align 8, !tbaa !15
  call void @_ZN7rocksdb9cassandra9SerializeIiEEvT_PNSt7__cxx1112basic_stringIcSt11char_traitsIcESaIcEEE(i32 noundef %8, ptr noundef %9)
  %10 = getelementptr inbounds nuw %"class.rocksdb::cassandra::Tombstone", ptr %5, i32 0, i32 2
  %11 = load i64, ptr %10, align 8, !tbaa !80
  %12 = load ptr, ptr %4, align 8, !tbaa !15
  call void @_ZN7rocksdb9cassandra9SerializeIlEEvT_PNSt7__cxx1112basic_stringIcSt11char_traitsIcESaIcEEE(i64 noundef %11, ptr noundef %12)
  ret void
}