; Function Attrs: mustprogress uwtable
define void @_ZNK7rocksdb9cassandra9Tombstone9SerializeEPNSt7__cxx1112basic_stringIcSt11char_traitsIcESaIcEEE(ptr noundef nonnull readonly align 8 captures(none) dereferenceable(24) %0, ptr noundef nonnull %1) unnamed_addr #3 align 2 {
  %3 = getelementptr inbounds nuw i8, ptr %0, i64 8
  %4 = load i8, ptr %3, align 8, !tbaa !7
  %5 = getelementptr inbounds nuw i8, ptr %1, i64 8
  %6 = load i64, ptr %5, align 8, !tbaa !11
  %7 = tail call noundef nonnull align 8 dereferenceable(32) ptr @_ZNSt7__cxx1112basic_stringIcSt11char_traitsIcESaIcEE14_M_replace_auxEmmmc(ptr noundef nonnull align 8 dereferenceable(32) %1, i64 noundef %6, i64 noundef 0, i64 noundef 1, i8 noundef signext %4)
  %8 = getelementptr inbounds nuw i8, ptr %0, i64 9
  %9 = load i8, ptr %8, align 1, !tbaa !10
  %10 = load i64, ptr %5, align 8, !tbaa !11
  %11 = tail call noundef nonnull align 8 dereferenceable(32) ptr @_ZNSt7__cxx1112basic_stringIcSt11char_traitsIcESaIcEE14_M_replace_auxEmmmc(ptr noundef nonnull align 8 dereferenceable(32) %1, i64 noundef %10, i64 noundef 0, i64 noundef 1, i8 noundef signext %9)
  %12 = getelementptr inbounds nuw i8, ptr %0, i64 12
  %13 = load i32, ptr %12, align 4, !tbaa !84
  br label %14

14:                                               ; preds = %14, %2
  %.04.i = phi i64 [ 0, %2 ], [ %21, %14 ]
  %.0.tr.i = trunc nuw i64 %.04.i to i32
  %15 = shl nuw nsw i32 %.0.tr.i, 3
  %16 = sub nuw nsw i32 24, %15
  %17 = ashr i32 %13, %16
  %18 = trunc i32 %17 to i8
  %19 = load i64, ptr %5, align 8, !tbaa !11
  %20 = tail call noundef nonnull align 8 dereferenceable(32) ptr @_ZNSt7__cxx1112basic_stringIcSt11char_traitsIcESaIcEE14_M_replace_auxEmmmc(ptr noundef nonnull align 8 dereferenceable(32) %1, i64 noundef %19, i64 noundef 0, i64 noundef 1, i8 noundef signext %18)
  %21 = add nuw nsw i64 %.04.i, 1
  %exitcond.not.i = icmp eq i64 %21, 4
  br i1 %exitcond.not.i, label %_ZN7rocksdb9cassandra9SerializeIiEEvT_PNSt7__cxx1112basic_stringIcSt11char_traitsIcESaIcEEE.exit, label %14, !llvm.loop !78

_ZN7rocksdb9cassandra9SerializeIiEEvT_PNSt7__cxx1112basic_stringIcSt11char_traitsIcESaIcEEE.exit: ; preds = %14
  %22 = getelementptr inbounds nuw i8, ptr %0, i64 16
  %23 = load i64, ptr %22, align 8, !tbaa !86
  br label %24

24:                                               ; preds = %24, %_ZN7rocksdb9cassandra9SerializeIiEEvT_PNSt7__cxx1112basic_stringIcSt11char_traitsIcESaIcEEE.exit
  %.04.i4 = phi i64 [ 0, %_ZN7rocksdb9cassandra9SerializeIiEEvT_PNSt7__cxx1112basic_stringIcSt11char_traitsIcESaIcEEE.exit ], [ %31, %24 ]
  %25 = shl nuw nsw i64 %.04.i4, 3
  %26 = sub nuw nsw i64 56, %25
  %27 = ashr i64 %23, %26
  %28 = trunc i64 %27 to i8
  %29 = load i64, ptr %5, align 8, !tbaa !11
  %30 = tail call noundef nonnull align 8 dereferenceable(32) ptr @_ZNSt7__cxx1112basic_stringIcSt11char_traitsIcESaIcEE14_M_replace_auxEmmmc(ptr noundef nonnull align 8 dereferenceable(32) %1, i64 noundef %29, i64 noundef 0, i64 noundef 1, i8 noundef signext %28)
  %31 = add nuw nsw i64 %.04.i4, 1
  %exitcond.not.i5 = icmp eq i64 %31, 8
  br i1 %exitcond.not.i5, label %_ZN7rocksdb9cassandra9SerializeIlEEvT_PNSt7__cxx1112basic_stringIcSt11char_traitsIcESaIcEEE.exit, label %24, !llvm.loop !77

_ZN7rocksdb9cassandra9SerializeIlEEvT_PNSt7__cxx1112basic_stringIcSt11char_traitsIcESaIcEEE.exit: ; preds = %24
  ret void
}